; Function Attrs: nounwind uwtable
define void @lv_obj_update_layout(ptr noundef %0) local_unnamed_addr #0 {
  %2 = load i8, ptr getelementptr inbounds nuw (i8, ptr @lv_global, i64 184), align 8, !tbaa !35, !range !46, !noundef !47
  %3 = trunc nuw i8 %2 to i1
  br i1 %3, label %13, label %4

4:                                                ; preds = %1
  store i8 1, ptr getelementptr inbounds nuw (i8, ptr @lv_global, i64 184), align 8, !tbaa !35
  %5 = tail call ptr @lv_obj_get_screen(ptr noundef %0) #8
  %6 = getelementptr inbounds nuw i8, ptr %5, i64 62
  %7 = load i16, ptr %6, align 2
  %8 = and i16 %7, 4
  %.not4 = icmp eq i16 %8, 0
  br i1 %.not4, label %._crit_edge, label %.lr.ph

.lr.ph:                                           ; preds = %4, %.lr.ph
  %9 = phi i16 [ %11, %.lr.ph ], [ %7, %4 ]
  %10 = and i16 %9, -5
  store i16 %10, ptr %6, align 2
  tail call fastcc void @layout_update_core(ptr noundef nonnull %5)
  %11 = load i16, ptr %6, align 2
  %12 = and i16 %11, 4
  %.not = icmp eq i16 %12, 0
  br i1 %.not, label %._crit_edge, label %.lr.ph, !llvm.loop !48

._crit_edge:                                      ; preds = %.lr.ph, %4
  store i8 0, ptr getelementptr inbounds nuw (i8, ptr @lv_global, i64 184), align 8, !tbaa !35
  br label %13

13:                                               ; preds = %1, %._crit_edge
  ret void
}